target datalayout = "e-m:e-p270:32:32-p271:32:32-p272:64:64-i64:64-i128:128-f80:128-n8:16:32:64-S128"
target triple = "x86_64-pc-linux-gnu"

%struct.async_ctx_st = type { %struct.async_fibre_st, ptr, i32 }
%struct.async_fibre_st = type { %struct.ucontext_t, [1 x %struct.__jmp_buf_tag], i32 }
%struct.ucontext_t = type { i64, ptr, %struct.stack_t, %struct.mcontext_t, %struct.__sigset_t, %struct._libc_fpstate, [4 x i64] }
%struct.stack_t = type { ptr, i32, i64 }
%struct.mcontext_t = type { [23 x i64], ptr, [8 x i64] }
%struct.__sigset_t = type { [16 x i64] }
%struct._libc_fpstate = type { i16, i16, i16, i16, i64, i64, i32, i32, [8 x %struct._libc_fpxreg], [16 x %struct._libc_xmmreg], [24 x i32] }
%struct._libc_fpxreg = type { [4 x i16], i16, [3 x i16] }
%struct._libc_xmmreg = type { [4 x i32] }
%struct.__jmp_buf_tag = type { [8 x i64], i32, %struct.__sigset_t }
%struct.async_job_st = type { %struct.async_fibre_st, ptr, ptr, i32, i32, ptr, ptr }

@ctxkey = internal global i32 0, align 4
@.str = private unnamed_addr constant [32 x i8] c"../openssl/crypto/async/async.c\00", align 1
@__func__.ASYNC_pause_job = private unnamed_addr constant [16 x i8] c"ASYNC_pause_job\00", align 1

; Function Attrs: nounwind uwtable
define ptr @async_get_ctx() #0 {
  %1 = call ptr @CRYPTO_THREAD_get_local(ptr noundef @ctxkey)
  ret ptr %1
}

; Function Attrs: nounwind uwtable
define i32 @ASYNC_pause_job() #0 {
  %1 = alloca i32, align 4
  %2 = alloca ptr, align 8
  %3 = alloca ptr, align 8
  %4 = alloca i32, align 4
  call void @llvm.lifetime.start.p0(i64 8, ptr %2) #8
  call void @llvm.lifetime.start.p0(i64 8, ptr %3) #8
  %5 = call ptr @async_get_ctx()
  store ptr %5, ptr %3, align 8, !tbaa !3
  %6 = load ptr, ptr %3, align 8, !tbaa !3
  %7 = icmp eq ptr %6, null
  br i1 %7, label %18, label %8

8:                                                ; preds = %0
  %9 = load ptr, ptr %3, align 8, !tbaa !3
  %10 = getelementptr inbounds nuw %struct.async_ctx_st, ptr %9, i32 0, i32 1
  %11 = load ptr, ptr %10, align 8, !tbaa !8
  %12 = icmp eq ptr %11, null
  br i1 %12, label %18, label %13

13:                                               ; preds = %8
  %14 = load ptr, ptr %3, align 8, !tbaa !3
  %15 = getelementptr inbounds nuw %struct.async_ctx_st, ptr %14, i32 0, i32 2
  %16 = load i32, ptr %15, align 8, !tbaa !44
  %17 = icmp ne i32 %16, 0
  br i1 %17, label %18, label %19

18:                                               ; preds = %13, %8, %0
  store i32 1, ptr %1, align 4
  store i32 1, ptr %4, align 4
  br label %36

19:                                               ; preds = %13
  %20 = load ptr, ptr %3, align 8, !tbaa !3
  %21 = getelementptr inbounds nuw %struct.async_ctx_st, ptr %20, i32 0, i32 1
  %22 = load ptr, ptr %21, align 8, !tbaa !8
  store ptr %22, ptr %2, align 8, !tbaa !22
  %23 = load ptr, ptr %2, align 8, !tbaa !22
  %24 = getelementptr inbounds nuw %struct.async_job_st, ptr %23, i32 0, i32 4
  store i32 1, ptr %24, align 4, !tbaa !29
  %25 = load ptr, ptr %2, align 8, !tbaa !22
  %26 = getelementptr inbounds nuw %struct.async_job_st, ptr %25, i32 0, i32 0
  %27 = load ptr, ptr %3, align 8, !tbaa !3
  %28 = getelementptr inbounds nuw %struct.async_ctx_st, ptr %27, i32 0, i32 0
  %29 = call i32 @async_fibre_swapcontext(ptr noundef %26, ptr noundef %28, i32 noundef 1)
  %30 = icmp ne i32 %29, 0
  br i1 %30, label %32, label %31

31:                                               ; preds = %19
  call void @ERR_new()
  call void @ERR_set_debug(ptr noundef @.str, i32 noundef 306, ptr noundef @__func__.ASYNC_pause_job)
  call void (i32, i32, ptr, ...) @ERR_set_error(i32 noundef 51, i32 noundef 102, ptr noundef null)
  store i32 0, ptr %1, align 4
  store i32 1, ptr %4, align 4
  br label %36

32:                                               ; preds = %19
  %33 = load ptr, ptr %2, align 8, !tbaa !22
  %34 = getelementptr inbounds nuw %struct.async_job_st, ptr %33, i32 0, i32 5
  %35 = load ptr, ptr %34, align 8, !tbaa !41
  call void @async_wait_ctx_reset_counts(ptr noundef %35)
  store i32 1, ptr %1, align 4
  store i32 1, ptr %4, align 4
  br label %36

36:                                               ; preds = %32, %31, %18
  call void @llvm.lifetime.end.p0(i64 8, ptr %3) #8
  call void @llvm.lifetime.end.p0(i64 8, ptr %2) #8
  %37 = load i32, ptr %1, align 4
  ret i32 %37
}