; Function Attrs: nounwind uwtable
define noundef i32 @ASYNC_pause_job() local_unnamed_addr #0 {
  %1 = tail call ptr @CRYPTO_THREAD_get_local(ptr noundef nonnull @ctxkey) #8
  %2 = icmp eq ptr %1, null
  br i1 %2, label %14, label %3

3:                                                ; preds = %0
  %4 = getelementptr inbounds nuw i8, ptr %1, i64 1176
  %5 = load ptr, ptr %4, align 8, !tbaa !3
  %6 = icmp eq ptr %5, null
  br i1 %6, label %14, label %7

7:                                                ; preds = %3
  %8 = getelementptr inbounds nuw i8, ptr %1, i64 1184
  %9 = load i32, ptr %8, align 8, !tbaa !28
  %.not = icmp eq i32 %9, 0
  br i1 %.not, label %10, label %14

10:                                               ; preds = %7
  %11 = getelementptr inbounds nuw i8, ptr %5, i64 1196
  store i32 1, ptr %11, align 4, !tbaa !26
  tail call fastcc void @async_fibre_swapcontext(ptr noundef nonnull %5, ptr noundef nonnull %1)
  %12 = getelementptr inbounds nuw i8, ptr %5, i64 1200
  %13 = load ptr, ptr %12, align 8, !tbaa !31
  tail call void @async_wait_ctx_reset_counts(ptr noundef %13) #8
  br label %14

14:                                               ; preds = %0, %3, %7, %10
  ret i32 1
}